target datalayout = "e-m:e-p270:32:32-p271:32:32-p272:64:64-i64:64-i128:128-f80:128-n8:16:32:64-S128"
target triple = "x86_64-pc-linux-gnu"

%struct.H5F_t = type { ptr, ptr, ptr, ptr, i32, ptr, i8, i8, ptr, i32 }
%struct.H5F_shared_t = type { ptr, ptr, ptr, i8, i32, i32, %struct.H5F_mtab_t, ptr, i8, i8, i64, i32, i32, i64, i64, ptr, ptr, %struct.H5AC_cache_config_t, %struct.H5AC_cache_image_config_t, i8, i8, ptr, i64, i32, i8, i64, i64, double, i64, i64, i64, i32, i32, i32, i8, i32, ptr, ptr, ptr, ptr, i8, i8, i8, i64, i64, ptr, ptr, i32, i64, i8, i32, i8, i64, i8, [13 x i32], [13 x i64], [13 x ptr], i8, i64, i64, [7 x i32], [7 x i32], %struct.H5F_blk_aggr_t, %struct.H5F_blk_aggr_t, i64, i64, %struct.H5F_meta_accum_t, i32, i32, [30 x ptr], %struct.H5F_object_flush_t, i8, ptr }
%struct.H5F_mtab_t = type { i32, i32, ptr }
%struct.H5AC_cache_config_t = type { i32, i8, i8, i8, [1025 x i8], i8, i8, i64, double, i64, i64, i64, i32, double, double, i8, i64, i32, double, double, i32, double, double, i8, i64, i32, i8, double, i64, i32 }
%struct.H5AC_cache_image_config_t = type { i32, i8, i8, i32 }
%struct.H5F_blk_aggr_t = type { i64, i64, i64, i64, i64 }
%struct.H5F_meta_accum_t = type { ptr, i64, i64, i64, i64, i64, i8 }
%struct.H5F_object_flush_t = type { ptr, ptr }
%struct.H5F_super_t = type { %struct.H5C_cache_entry_t, i32, i8, i8, i8, i32, [2 x i32], i64, i64, i64, i64, ptr }
%struct.H5C_cache_entry_t = type { ptr, i64, i64, ptr, i8, ptr, i8, i8, i8, i8, i32, i8, i8, i8, i8, i8, i32, ptr, i32, i32, i32, i32, i32, i8, i8, ptr, ptr, ptr, ptr, ptr, ptr, i8, i32, i8, i64, ptr, i64, i64, i32, i8, i32, i32, i8, ptr, ptr, ptr }

@.str = private unnamed_addr constant [101 x i8] c"generated/home/dtcxzyw/WorkSpace/Projects/compilers/llvm-opt-benchmark/bench/hdf5/hdf5/src/H5Ftest.c\00", align 1
@H5E_ARGS_g = external global i64, align 8
@H5E_BADTYPE_g = external global i64, align 8
@.str.1 = private unnamed_addr constant [11 x i8] c"not a file\00", align 1
@H5E_FILE_g = external global i64, align 8
@H5E_CANTSET_g = external global i64, align 8
@.str.2 = private unnamed_addr constant [22 x i8] c"can't set API context\00", align 1
@H5E_CANTGET_g = external global i64, align 8
@H5E_CANTRESET_g = external global i64, align 8
@.str.4 = private unnamed_addr constant [24 x i8] c"can't reset API context\00", align 1
@__func__.H5F__check_cached_stab_test = private unnamed_addr constant [28 x i8] c"H5F__check_cached_stab_test\00", align 1
@.str.5 = private unnamed_addr constant [42 x i8] c"unable to verify cached symbol table info\00", align 1

; Function Attrs: nounwind uwtable
define i32 @H5F__check_cached_stab_test(i64 noundef %0) #0 {
  %2 = alloca i64, align 8
  %3 = alloca ptr, align 8
  %4 = alloca i8, align 1
  %5 = alloca i32, align 4
  %6 = alloca i8, align 1
  store i64 %0, ptr %2, align 8
  store i8 0, ptr %4, align 1
  store i32 0, ptr %5, align 4
  store i8 0, ptr %6, align 1
  %7 = load i64, ptr %2, align 8
  %8 = call ptr @H5VL_object_verify(i64 noundef %7, i32 noundef 1)
  store ptr %8, ptr %3, align 8
  %9 = icmp eq ptr null, %8
  br i1 %9, label %10, label %25

10:                                               ; preds = %1
  br label %11

11:                                               ; preds = %10
  br label %12

12:                                               ; preds = %11
  br label %13

13:                                               ; preds = %12
  %14 = load i64, ptr @H5E_ARGS_g, align 8
  %15 = load i64, ptr @H5E_BADTYPE_g, align 8
  %16 = call i32 (ptr, ptr, i32, i64, i64, ptr, ...) @H5E_printf_stack(ptr noundef @.str, ptr noundef @__func__.H5F__check_cached_stab_test, i32 noundef 134, i64 noundef %14, i64 noundef %15, ptr noundef @.str.1)
  br label %17

17:                                               ; preds = %13
  store i8 1, ptr %6, align 1
  %18 = load i8, ptr %6, align 1
  %19 = trunc i8 %18 to i1
  %20 = zext i1 %19 to i8
  store i8 %20, ptr %6, align 1
  br label %21

21:                                               ; preds = %17
  br label %22

22:                                               ; preds = %21
  store i32 -1, ptr %5, align 4
  br label %75

23:                                               ; No predecessors!
  br label %24

24:                                               ; preds = %23
  br label %25

25:                                               ; preds = %24, %1
  %26 = call i32 @H5CX_push()
  %27 = icmp slt i32 %26, 0
  br i1 %27, label %28, label %43

28:                                               ; preds = %25
  br label %29

29:                                               ; preds = %28
  br label %30

30:                                               ; preds = %29
  br label %31

31:                                               ; preds = %30
  %32 = load i64, ptr @H5E_FILE_g, align 8
  %33 = load i64, ptr @H5E_CANTSET_g, align 8
  %34 = call i32 (ptr, ptr, i32, i64, i64, ptr, ...) @H5E_printf_stack(ptr noundef @.str, ptr noundef @__func__.H5F__check_cached_stab_test, i32 noundef 138, i64 noundef %32, i64 noundef %33, ptr noundef @.str.2)
  br label %35

35:                                               ; preds = %31
  store i8 1, ptr %6, align 1
  %36 = load i8, ptr %6, align 1
  %37 = trunc i8 %36 to i1
  %38 = zext i1 %37 to i8
  store i8 %38, ptr %6, align 1
  br label %39

39:                                               ; preds = %35
  br label %40

40:                                               ; preds = %39
  store i32 -1, ptr %5, align 4
  br label %75

41:                                               ; No predecessors!
  br label %42

42:                                               ; preds = %41
  br label %43

43:                                               ; preds = %42, %25
  store i8 1, ptr %4, align 1
  %44 = load ptr, ptr %3, align 8
  %45 = getelementptr inbounds %struct.H5F_t, ptr %44, i32 0, i32 2
  %46 = load ptr, ptr %45, align 8
  %47 = getelementptr inbounds %struct.H5F_shared_t, ptr %46, i32 0, i32 37
  %48 = load ptr, ptr %47, align 8
  %49 = call ptr @H5G_oloc(ptr noundef %48)
  %50 = load ptr, ptr %3, align 8
  %51 = getelementptr inbounds %struct.H5F_t, ptr %50, i32 0, i32 2
  %52 = load ptr, ptr %51, align 8
  %53 = getelementptr inbounds %struct.H5F_shared_t, ptr %52, i32 0, i32 1
  %54 = load ptr, ptr %53, align 8
  %55 = getelementptr inbounds %struct.H5F_super_t, ptr %54, i32 0, i32 11
  %56 = load ptr, ptr %55, align 8
  %57 = call i32 @H5G__verify_cached_stab_test(ptr noundef %49, ptr noundef %56)
  %58 = icmp slt i32 %57, 0
  br i1 %58, label %59, label %74

59:                                               ; preds = %43
  br label %60

60:                                               ; preds = %59
  br label %61

61:                                               ; preds = %60
  br label %62

62:                                               ; preds = %61
  %63 = load i64, ptr @H5E_FILE_g, align 8
  %64 = load i64, ptr @H5E_CANTGET_g, align 8
  %65 = call i32 (ptr, ptr, i32, i64, i64, ptr, ...) @H5E_printf_stack(ptr noundef @.str, ptr noundef @__func__.H5F__check_cached_stab_test, i32 noundef 143, i64 noundef %63, i64 noundef %64, ptr noundef @.str.5)
  br label %66

66:                                               ; preds = %62
  store i8 1, ptr %6, align 1
  %67 = load i8, ptr %6, align 1
  %68 = trunc i8 %67 to i1
  %69 = zext i1 %68 to i8
  store i8 %69, ptr %6, align 1
  br label %70

70:                                               ; preds = %66
  br label %71

71:                                               ; preds = %70
  store i32 -1, ptr %5, align 4
  br label %75

72:                                               ; No predecessors!
  br label %73

73:                                               ; preds = %72
  br label %74

74:                                               ; preds = %73, %43
  br label %75

75:                                               ; preds = %74, %71, %40, %22
  %76 = load i8, ptr %4, align 1
  %77 = trunc i8 %76 to i1
  br i1 %77, label %78, label %94

78:                                               ; preds = %75
  %79 = call i32 @H5CX_pop(i1 noundef zeroext false)
  %80 = icmp slt i32 %79, 0
  br i1 %80, label %81, label %94

81:                                               ; preds = %78
  br label %82

82:                                               ; preds = %81
  br label %83

83:                                               ; preds = %82
  br label %84

84:                                               ; preds = %83
  %85 = load i64, ptr @H5E_FILE_g, align 8
  %86 = load i64, ptr @H5E_CANTRESET_g, align 8
  %87 = call i32 (ptr, ptr, i32, i64, i64, ptr, ...) @H5E_printf_stack(ptr noundef @.str, ptr noundef @__func__.H5F__check_cached_stab_test, i32 noundef 147, i64 noundef %85, i64 noundef %86, ptr noundef @.str.4)
  br label %88

88:                                               ; preds = %84
  store i8 1, ptr %6, align 1
  %89 = load i8, ptr %6, align 1
  %90 = trunc i8 %89 to i1
  %91 = zext i1 %90 to i8
  store i8 %91, ptr %6, align 1
  br label %92

92:                                               ; preds = %88
  store i32 -1, ptr %5, align 4
  br label %93

93:                                               ; preds = %92
  br label %94

94:                                               ; preds = %93, %78, %75
  %95 = load i32, ptr %5, align 4
  ret i32 %95
}