; Function Attrs: nounwind uwtable
define range(i32 -1, 1) i32 @H5F__check_cached_stab_test(i64 noundef %0) local_unnamed_addr #0 {
  %2 = tail call ptr @H5VL_object_verify(i64 noundef %0, i32 noundef 1) #2
  %3 = icmp eq ptr %2, null
  br i1 %3, label %4, label %8

4:                                                ; preds = %1
  %5 = load i64, ptr @H5E_ARGS_g, align 8
  %6 = load i64, ptr @H5E_BADTYPE_g, align 8
  %7 = tail call i32 (ptr, ptr, i32, i64, i64, ptr, ...) @H5E_printf_stack(ptr noundef nonnull @.str, ptr noundef nonnull @__func__.H5F__check_cached_stab_test, i32 noundef 134, i64 noundef %5, i64 noundef %6, ptr noundef nonnull @.str.1) #2
  br label %39

8:                                                ; preds = %1
  %9 = tail call i32 @H5CX_push() #2
  %10 = icmp slt i32 %9, 0
  br i1 %10, label %11, label %15

11:                                               ; preds = %8
  %12 = load i64, ptr @H5E_FILE_g, align 8
  %13 = load i64, ptr @H5E_CANTSET_g, align 8
  %14 = tail call i32 (ptr, ptr, i32, i64, i64, ptr, ...) @H5E_printf_stack(ptr noundef nonnull @.str, ptr noundef nonnull @__func__.H5F__check_cached_stab_test, i32 noundef 138, i64 noundef %12, i64 noundef %13, ptr noundef nonnull @.str.2) #2
  br label %39

15:                                               ; preds = %8
  %16 = getelementptr inbounds i8, ptr %2, i64 16
  %17 = load ptr, ptr %16, align 8
  %18 = getelementptr inbounds i8, ptr %17, i64 1456
  %19 = load ptr, ptr %18, align 8
  %20 = tail call ptr @H5G_oloc(ptr noundef %19) #2
  %21 = load ptr, ptr %16, align 8
  %22 = getelementptr inbounds i8, ptr %21, i64 8
  %23 = load ptr, ptr %22, align 8
  %24 = getelementptr inbounds i8, ptr %23, i64 304
  %25 = load ptr, ptr %24, align 8
  %26 = tail call i32 @H5G__verify_cached_stab_test(ptr noundef %20, ptr noundef %25) #2
  %27 = icmp slt i32 %26, 0
  br i1 %27, label %28, label %32

28:                                               ; preds = %15
  %29 = load i64, ptr @H5E_FILE_g, align 8
  %30 = load i64, ptr @H5E_CANTGET_g, align 8
  %31 = tail call i32 (ptr, ptr, i32, i64, i64, ptr, ...) @H5E_printf_stack(ptr noundef nonnull @.str, ptr noundef nonnull @__func__.H5F__check_cached_stab_test, i32 noundef 143, i64 noundef %29, i64 noundef %30, ptr noundef nonnull @.str.5) #2
  br label %32

32:                                               ; preds = %28, %15
  %.0.ph = phi i32 [ 0, %15 ], [ -1, %28 ]
  %33 = tail call i32 @H5CX_pop(i1 noundef zeroext false) #2
  %34 = icmp slt i32 %33, 0
  br i1 %34, label %35, label %39

35:                                               ; preds = %32
  %36 = load i64, ptr @H5E_FILE_g, align 8
  %37 = load i64, ptr @H5E_CANTRESET_g, align 8
  %38 = tail call i32 (ptr, ptr, i32, i64, i64, ptr, ...) @H5E_printf_stack(ptr noundef nonnull @.str, ptr noundef nonnull @__func__.H5F__check_cached_stab_test, i32 noundef 147, i64 noundef %36, i64 noundef %37, ptr noundef nonnull @.str.4) #2
  br label %39

39:                                               ; preds = %4, %11, %35, %32
  %.1 = phi i32 [ -1, %35 ], [ %.0.ph, %32 ], [ -1, %4 ], [ -1, %11 ]
  ret i32 %.1
}